target datalayout = "e-m:e-p270:32:32-p271:32:32-p272:64:64-i64:64-i128:128-f80:128-n8:16:32:64-S128"
target triple = "x86_64-pc-linux-gnu"

%struct.H5FL_reg_gc_list_t = type { i64, ptr }
%struct.H5FL_blk_gc_list_t = type { i64, ptr }
%struct.H5FL_gc_arr_list_t = type { i64, ptr }
%struct.H5FL_fac_gc_list_t = type { i64, ptr }
%struct.H5FL_reg_gc_node_t = type { ptr, ptr }
%struct.H5FL_reg_head_t = type { i8, i32, i32, ptr, i64, ptr }
%struct.H5FL_fac_gc_node_t = type { ptr, ptr }
%struct.H5FL_fac_head_t = type { i8, i32, i32, i64, ptr, ptr }
%struct.H5FL_gc_arr_node_t = type { ptr, ptr }
%struct.H5FL_arr_head_t = type { i8, i32, i64, ptr, i32, i64, i64, ptr }
%struct.H5FL_blk_gc_node_t = type { ptr, ptr }
%struct.H5FL_blk_head_t = type { i8, i32, i32, i64, ptr, ptr }
%struct.H5FL_blk_node_t = type { i64, i32, i32, ptr, ptr, ptr }
%struct.H5FL_arr_node_t = type { i64, i32, i32, ptr }

@H5FL_init_g = global i8 0, align 1
@H5_libterm_g = external global i8, align 1
@H5FL_reg_gc_head = internal global %struct.H5FL_reg_gc_list_t zeroinitializer, align 8
@H5FL_blk_gc_head = internal global %struct.H5FL_blk_gc_list_t zeroinitializer, align 8
@H5FL_arr_gc_head = internal global %struct.H5FL_gc_arr_list_t zeroinitializer, align 8
@H5FL_fac_gc_head = internal global %struct.H5FL_fac_gc_list_t zeroinitializer, align 8

; Function Attrs: nounwind uwtable
define i32 @H5FL_get_free_list_sizes(ptr noundef %0, ptr noundef %1, ptr noundef %2, ptr noundef %3) #0 {
  %5 = alloca ptr, align 8
  %6 = alloca ptr, align 8
  %7 = alloca ptr, align 8
  %8 = alloca ptr, align 8
  %9 = alloca ptr, align 8
  %10 = alloca ptr, align 8
  %11 = alloca ptr, align 8
  %12 = alloca ptr, align 8
  %13 = alloca i32, align 4
  %14 = alloca ptr, align 8
  %15 = alloca ptr, align 8
  %16 = alloca ptr, align 8
  %17 = alloca ptr, align 8
  store ptr %0, ptr %5, align 8, !tbaa !134
  store ptr %1, ptr %6, align 8, !tbaa !134
  store ptr %2, ptr %7, align 8, !tbaa !134
  store ptr %3, ptr %8, align 8, !tbaa !134
  %18 = load i8, ptr @H5FL_init_g, align 1, !tbaa !7, !range !9, !noundef !10
  %19 = trunc i8 %18 to i1
  br i1 %19, label %24, label %20

20:                                               ; preds = %4
  %21 = load i8, ptr @H5_libterm_g, align 1, !tbaa !7, !range !9, !noundef !10
  %22 = trunc i8 %21 to i1
  %23 = xor i1 %22, true
  br label %24

24:                                               ; preds = %20, %4
  %25 = phi i1 [ false, %4 ], [ %23, %20 ]
  %26 = xor i1 %25, true
  %27 = xor i1 %26, true
  %28 = zext i1 %27 to i32
  %29 = sext i32 %28 to i64
  %30 = call i64 @llvm.expect.i64(i64 %29, i64 0)
  %31 = icmp ne i64 %30, 0
  br i1 %31, label %32, label %33

32:                                               ; preds = %24
  store i8 1, ptr @H5FL_init_g, align 1, !tbaa !7
  br label %33

33:                                               ; preds = %32, %24
  %34 = load i8, ptr @H5FL_init_g, align 1, !tbaa !7, !range !9, !noundef !10
  %35 = trunc i8 %34 to i1
  br i1 %35, label %40, label %36

36:                                               ; preds = %33
  %37 = load i8, ptr @H5_libterm_g, align 1, !tbaa !7, !range !9, !noundef !10
  %38 = trunc i8 %37 to i1
  %39 = xor i1 %38, true
  br label %40

40:                                               ; preds = %36, %33
  %41 = phi i1 [ true, %33 ], [ %39, %36 ]
  %42 = xor i1 %41, true
  %43 = xor i1 %42, true
  %44 = zext i1 %43 to i32
  %45 = sext i32 %44 to i64
  %46 = call i64 @llvm.expect.i64(i64 %45, i64 1)
  %47 = icmp ne i64 %46, 0
  br i1 %47, label %48, label %198

48:                                               ; preds = %40
  %49 = load ptr, ptr %5, align 8, !tbaa !134
  %50 = icmp ne ptr %49, null
  br i1 %50, label %51, label %76

51:                                               ; preds = %48
  call void @llvm.lifetime.start.p0(i64 8, ptr %9) #9
  %52 = load ptr, ptr %5, align 8, !tbaa !134
  store i64 0, ptr %52, align 8, !tbaa !11
  %53 = load ptr, ptr getelementptr inbounds nuw (%struct.H5FL_reg_gc_list_t, ptr @H5FL_reg_gc_head, i32 0, i32 1), align 8, !tbaa !16
  store ptr %53, ptr %9, align 8, !tbaa !13
  br label %54

54:                                               ; preds = %57, %51
  %55 = load ptr, ptr %9, align 8, !tbaa !13
  %56 = icmp ne ptr %55, null
  br i1 %56, label %57, label %75

57:                                               ; preds = %54
  call void @llvm.lifetime.start.p0(i64 8, ptr %10) #9
  %58 = load ptr, ptr %9, align 8, !tbaa !13
  %59 = getelementptr inbounds nuw %struct.H5FL_reg_gc_node_t, ptr %58, i32 0, i32 0
  %60 = load ptr, ptr %59, align 8, !tbaa !21
  store ptr %60, ptr %10, align 8, !tbaa !68
  %61 = load ptr, ptr %10, align 8, !tbaa !68
  %62 = getelementptr inbounds nuw %struct.H5FL_reg_head_t, ptr %61, i32 0, i32 4
  %63 = load i64, ptr %62, align 8, !tbaa !74
  %64 = load ptr, ptr %10, align 8, !tbaa !68
  %65 = getelementptr inbounds nuw %struct.H5FL_reg_head_t, ptr %64, i32 0, i32 1
  %66 = load i32, ptr %65, align 4, !tbaa !22
  %67 = zext i32 %66 to i64
  %68 = mul i64 %63, %67
  %69 = load ptr, ptr %5, align 8, !tbaa !134
  %70 = load i64, ptr %69, align 8, !tbaa !11
  %71 = add i64 %70, %68
  store i64 %71, ptr %69, align 8, !tbaa !11
  %72 = load ptr, ptr %9, align 8, !tbaa !13
  %73 = getelementptr inbounds nuw %struct.H5FL_reg_gc_node_t, ptr %72, i32 0, i32 1
  %74 = load ptr, ptr %73, align 8, !tbaa !18
  store ptr %74, ptr %9, align 8, !tbaa !13
  call void @llvm.lifetime.end.p0(i64 8, ptr %10) #9
  br label %54, !llvm.loop !136

75:                                               ; preds = %54
  call void @llvm.lifetime.end.p0(i64 8, ptr %9) #9
  br label %76

76:                                               ; preds = %75, %48
  %77 = load ptr, ptr %6, align 8, !tbaa !134
  %78 = icmp ne ptr %77, null
  br i1 %78, label %79, label %131

79:                                               ; preds = %76
  call void @llvm.lifetime.start.p0(i64 8, ptr %11) #9
  %80 = load ptr, ptr %6, align 8, !tbaa !134
  store i64 0, ptr %80, align 8, !tbaa !11
  %81 = load ptr, ptr getelementptr inbounds nuw (%struct.H5FL_gc_arr_list_t, ptr @H5FL_arr_gc_head, i32 0, i32 1), align 8, !tbaa !43
  store ptr %81, ptr %11, align 8, !tbaa !41
  br label %82

82:                                               ; preds = %126, %79
  %83 = load ptr, ptr %11, align 8, !tbaa !41
  %84 = icmp ne ptr %83, null
  br i1 %84, label %85, label %130

85:                                               ; preds = %82
  call void @llvm.lifetime.start.p0(i64 8, ptr %12) #9
  %86 = load ptr, ptr %11, align 8, !tbaa !41
  %87 = getelementptr inbounds nuw %struct.H5FL_gc_arr_node_t, ptr %86, i32 0, i32 0
  %88 = load ptr, ptr %87, align 8, !tbaa !48
  store ptr %88, ptr %12, align 8, !tbaa !101
  %89 = load ptr, ptr %12, align 8, !tbaa !101
  %90 = getelementptr inbounds nuw %struct.H5FL_arr_head_t, ptr %89, i32 0, i32 1
  %91 = load i32, ptr %90, align 4, !tbaa !49
  %92 = icmp ugt i32 %91, 0
  br i1 %92, label %93, label %126

93:                                               ; preds = %85
  call void @llvm.lifetime.start.p0(i64 4, ptr %13) #9
  store i32 0, ptr %13, align 4, !tbaa !3
  br label %94

94:                                               ; preds = %122, %93
  %95 = load i32, ptr %13, align 4, !tbaa !3
  %96 = load ptr, ptr %12, align 8, !tbaa !101
  %97 = getelementptr inbounds nuw %struct.H5FL_arr_head_t, ptr %96, i32 0, i32 4
  %98 = load i32, ptr %97, align 8, !tbaa !110
  %99 = icmp ult i32 %95, %98
  br i1 %99, label %100, label %125

100:                                              ; preds = %94
  %101 = load ptr, ptr %12, align 8, !tbaa !101
  %102 = getelementptr inbounds nuw %struct.H5FL_arr_head_t, ptr %101, i32 0, i32 7
  %103 = load ptr, ptr %102, align 8, !tbaa !52
  %104 = load i32, ptr %13, align 4, !tbaa !3
  %105 = zext i32 %104 to i64
  %106 = getelementptr inbounds nuw %struct.H5FL_arr_node_t, ptr %103, i64 %105
  %107 = getelementptr inbounds nuw %struct.H5FL_arr_node_t, ptr %106, i32 0, i32 1
  %108 = load i32, ptr %107, align 8, !tbaa !112
  %109 = zext i32 %108 to i64
  %110 = load ptr, ptr %12, align 8, !tbaa !101
  %111 = getelementptr inbounds nuw %struct.H5FL_arr_head_t, ptr %110, i32 0, i32 7
  %112 = load ptr, ptr %111, align 8, !tbaa !52
  %113 = load i32, ptr %13, align 4, !tbaa !3
  %114 = zext i32 %113 to i64
  %115 = getelementptr inbounds nuw %struct.H5FL_arr_node_t, ptr %112, i64 %114
  %116 = getelementptr inbounds nuw %struct.H5FL_arr_node_t, ptr %115, i32 0, i32 0
  %117 = load i64, ptr %116, align 8, !tbaa !106
  %118 = mul i64 %109, %117
  %119 = load ptr, ptr %6, align 8, !tbaa !134
  %120 = load i64, ptr %119, align 8, !tbaa !11
  %121 = add i64 %120, %118
  store i64 %121, ptr %119, align 8, !tbaa !11
  br label %122

122:                                              ; preds = %100
  %123 = load i32, ptr %13, align 4, !tbaa !3
  %124 = add i32 %123, 1
  store i32 %124, ptr %13, align 4, !tbaa !3
  br label %94, !llvm.loop !137

125:                                              ; preds = %94
  call void @llvm.lifetime.end.p0(i64 4, ptr %13) #9
  br label %126

126:                                              ; preds = %125, %85
  %127 = load ptr, ptr %11, align 8, !tbaa !41
  %128 = getelementptr inbounds nuw %struct.H5FL_gc_arr_node_t, ptr %127, i32 0, i32 1
  %129 = load ptr, ptr %128, align 8, !tbaa !45
  store ptr %129, ptr %11, align 8, !tbaa !41
  call void @llvm.lifetime.end.p0(i64 8, ptr %12) #9
  br label %82, !llvm.loop !138

130:                                              ; preds = %82
  call void @llvm.lifetime.end.p0(i64 8, ptr %11) #9
  br label %131

131:                                              ; preds = %130, %76
  %132 = load ptr, ptr %7, align 8, !tbaa !134
  %133 = icmp ne ptr %132, null
  br i1 %133, label %134, label %169

134:                                              ; preds = %131
  call void @llvm.lifetime.start.p0(i64 8, ptr %14) #9
  %135 = load ptr, ptr getelementptr inbounds nuw (%struct.H5FL_blk_gc_list_t, ptr @H5FL_blk_gc_head, i32 0, i32 1), align 8, !tbaa !57
  store ptr %135, ptr %14, align 8, !tbaa !55
  %136 = load ptr, ptr %7, align 8, !tbaa !134
  store i64 0, ptr %136, align 8, !tbaa !11
  br label %137

137:                                              ; preds = %164, %134
  %138 = load ptr, ptr %14, align 8, !tbaa !55
  %139 = icmp ne ptr %138, null
  br i1 %139, label %140, label %168

140:                                              ; preds = %137
  call void @llvm.lifetime.start.p0(i64 8, ptr %15) #9
  %141 = load ptr, ptr %14, align 8, !tbaa !55
  %142 = getelementptr inbounds nuw %struct.H5FL_blk_gc_node_t, ptr %141, i32 0, i32 0
  %143 = load ptr, ptr %142, align 8, !tbaa !62
  %144 = getelementptr inbounds nuw %struct.H5FL_blk_head_t, ptr %143, i32 0, i32 5
  %145 = load ptr, ptr %144, align 8, !tbaa !97
  store ptr %145, ptr %15, align 8, !tbaa !80
  br label %146

146:                                              ; preds = %149, %140
  %147 = load ptr, ptr %15, align 8, !tbaa !80
  %148 = icmp ne ptr %147, null
  br i1 %148, label %149, label %164

149:                                              ; preds = %146
  %150 = load ptr, ptr %15, align 8, !tbaa !80
  %151 = getelementptr inbounds nuw %struct.H5FL_blk_node_t, ptr %150, i32 0, i32 1
  %152 = load i32, ptr %151, align 8, !tbaa !96
  %153 = zext i32 %152 to i64
  %154 = load ptr, ptr %15, align 8, !tbaa !80
  %155 = getelementptr inbounds nuw %struct.H5FL_blk_node_t, ptr %154, i32 0, i32 0
  %156 = load i64, ptr %155, align 8, !tbaa !86
  %157 = mul i64 %153, %156
  %158 = load ptr, ptr %7, align 8, !tbaa !134
  %159 = load i64, ptr %158, align 8, !tbaa !11
  %160 = add i64 %159, %157
  store i64 %160, ptr %158, align 8, !tbaa !11
  %161 = load ptr, ptr %15, align 8, !tbaa !80
  %162 = getelementptr inbounds nuw %struct.H5FL_blk_node_t, ptr %161, i32 0, i32 4
  %163 = load ptr, ptr %162, align 8, !tbaa !87
  store ptr %163, ptr %15, align 8, !tbaa !80
  br label %146, !llvm.loop !139

164:                                              ; preds = %146
  %165 = load ptr, ptr %14, align 8, !tbaa !55
  %166 = getelementptr inbounds nuw %struct.H5FL_blk_gc_node_t, ptr %165, i32 0, i32 1
  %167 = load ptr, ptr %166, align 8, !tbaa !59
  store ptr %167, ptr %14, align 8, !tbaa !55
  call void @llvm.lifetime.end.p0(i64 8, ptr %15) #9
  br label %137, !llvm.loop !140

168:                                              ; preds = %137
  call void @llvm.lifetime.end.p0(i64 8, ptr %14) #9
  br label %169

169:                                              ; preds = %168, %131
  %170 = load ptr, ptr %8, align 8, !tbaa !134
  %171 = icmp ne ptr %170, null
  br i1 %171, label %172, label %197

172:                                              ; preds = %169
  call void @llvm.lifetime.start.p0(i64 8, ptr %16) #9
  %173 = load ptr, ptr getelementptr inbounds nuw (%struct.H5FL_fac_gc_list_t, ptr @H5FL_fac_gc_head, i32 0, i32 1), align 8, !tbaa !29
  store ptr %173, ptr %16, align 8, !tbaa !35
  %174 = load ptr, ptr %8, align 8, !tbaa !134
  store i64 0, ptr %174, align 8, !tbaa !11
  br label %175

175:                                              ; preds = %178, %172
  %176 = load ptr, ptr %16, align 8, !tbaa !35
  %177 = icmp ne ptr %176, null
  br i1 %177, label %178, label %196

178:                                              ; preds = %175
  call void @llvm.lifetime.start.p0(i64 8, ptr %17) #9
  %179 = load ptr, ptr %16, align 8, !tbaa !35
  %180 = getelementptr inbounds nuw %struct.H5FL_fac_gc_node_t, ptr %179, i32 0, i32 0
  %181 = load ptr, ptr %180, align 8, !tbaa !36
  store ptr %181, ptr %17, align 8, !tbaa !122
  %182 = load ptr, ptr %17, align 8, !tbaa !122
  %183 = getelementptr inbounds nuw %struct.H5FL_fac_head_t, ptr %182, i32 0, i32 1
  %184 = load i32, ptr %183, align 4, !tbaa !132
  %185 = zext i32 %184 to i64
  %186 = load ptr, ptr %17, align 8, !tbaa !122
  %187 = getelementptr inbounds nuw %struct.H5FL_fac_head_t, ptr %186, i32 0, i32 3
  %188 = load i64, ptr %187, align 8, !tbaa !123
  %189 = mul i64 %185, %188
  %190 = load ptr, ptr %8, align 8, !tbaa !134
  %191 = load i64, ptr %190, align 8, !tbaa !11
  %192 = add i64 %191, %189
  store i64 %192, ptr %190, align 8, !tbaa !11
  %193 = load ptr, ptr %16, align 8, !tbaa !35
  %194 = getelementptr inbounds nuw %struct.H5FL_fac_gc_node_t, ptr %193, i32 0, i32 1
  %195 = load ptr, ptr %194, align 8, !tbaa !32
  store ptr %195, ptr %16, align 8, !tbaa !35
  call void @llvm.lifetime.end.p0(i64 8, ptr %17) #9
  br label %175, !llvm.loop !141

196:                                              ; preds = %175
  call void @llvm.lifetime.end.p0(i64 8, ptr %16) #9
  br label %197

197:                                              ; preds = %196, %169
  br label %198

198:                                              ; preds = %197, %40
  ret i32 0
}