; Function Attrs: nofree norecurse nosync nounwind memory(readwrite, inaccessiblemem: none) uwtable
define noundef i32 @H5FL_get_free_list_sizes(ptr noundef writeonly captures(address_is_null) %0, ptr noundef writeonly captures(address_is_null) %1, ptr noundef writeonly captures(address_is_null) %2, ptr noundef writeonly captures(address_is_null) %3) local_unnamed_addr #3 {
  %5 = load i8, ptr @H5FL_init_g, align 1, !tbaa !3, !range !7, !noundef !8
  %6 = trunc nuw i8 %5 to i1
  %7 = load i8, ptr @H5_libterm_g, align 1, !range !7
  %8 = trunc nuw i8 %7 to i1
  %9 = select i1 %6, i1 true, i1 %8
  br i1 %9, label %10, label %.thread, !prof !15

.thread:                                          ; preds = %4
  store i8 1, ptr @H5FL_init_g, align 1, !tbaa !3
  br label %13

10:                                               ; preds = %4
  %11 = xor i1 %8, true
  %12 = select i1 %6, i1 true, i1 %11
  br i1 %12, label %13, label %.loopexit, !prof !63

13:                                               ; preds = %.thread, %10
  %.not = icmp eq ptr %0, null
  br i1 %.not, label %.loopexit60, label %14

14:                                               ; preds = %13
  store i64 0, ptr %0, align 8, !tbaa !86
  %.061 = load ptr, ptr @H5FL_reg_gc_head.1, align 8, !tbaa !74
  %.not4862 = icmp eq ptr %.061, null
  br i1 %.not4862, label %.loopexit60, label %.lr.ph

.lr.ph:                                           ; preds = %14, %.lr.ph
  %15 = phi i64 [ %23, %.lr.ph ], [ 0, %14 ]
  %.063 = phi ptr [ %.0, %.lr.ph ], [ %.061, %14 ]
  %16 = load ptr, ptr %.063, align 8, !tbaa !19
  %17 = getelementptr inbounds nuw i8, ptr %16, i64 24
  %18 = load i64, ptr %17, align 8, !tbaa !72
  %19 = getelementptr inbounds nuw i8, ptr %16, i64 4
  %20 = load i32, ptr %19, align 4, !tbaa !20
  %21 = zext i32 %20 to i64
  %22 = mul i64 %18, %21
  %23 = add i64 %22, %15
  store i64 %23, ptr %0, align 8, !tbaa !86
  %24 = getelementptr inbounds nuw i8, ptr %.063, i64 8
  %.0 = load ptr, ptr %24, align 8, !tbaa !74
  %.not48 = icmp eq ptr %.0, null
  br i1 %.not48, label %.loopexit60, label %.lr.ph, !llvm.loop !124

.loopexit60:                                      ; preds = %.lr.ph, %14, %13
  %.not49 = icmp eq ptr %1, null
  br i1 %.not49, label %.loopexit59, label %25

25:                                               ; preds = %.loopexit60
  store i64 0, ptr %1, align 8, !tbaa !86
  %.04367 = load ptr, ptr @H5FL_arr_gc_head.1, align 8, !tbaa !116
  %.not5068 = icmp eq ptr %.04367, null
  br i1 %.not5068, label %.loopexit59, label %.lr.ph70

.lr.ph70:                                         ; preds = %25, %.loopexit58
  %.promoted66 = phi i64 [ %.promoted6687, %.loopexit58 ], [ 0, %25 ]
  %.04369 = phi ptr [ %.043, %.loopexit58 ], [ %.04367, %25 ]
  %26 = load ptr, ptr %.04369, align 8, !tbaa !44
  %27 = getelementptr inbounds nuw i8, ptr %26, i64 4
  %28 = load i32, ptr %27, align 4, !tbaa !45
  %.not56 = icmp eq i32 %28, 0
  br i1 %.not56, label %.loopexit58, label %.preheader

.preheader:                                       ; preds = %.lr.ph70
  %29 = getelementptr inbounds nuw i8, ptr %26, i64 24
  %30 = load i32, ptr %29, align 8, !tbaa !112
  %.not85 = icmp eq i32 %30, 0
  br i1 %.not85, label %.loopexit58, label %.lr.ph65

.lr.ph65:                                         ; preds = %.preheader
  %31 = getelementptr inbounds nuw i8, ptr %26, i64 48
  %32 = load ptr, ptr %31, align 8, !tbaa !48
  %wide.trip.count = zext i32 %30 to i64
  br label %33

33:                                               ; preds = %.lr.ph65, %33
  %indvars.iv = phi i64 [ 0, %.lr.ph65 ], [ %indvars.iv.next, %33 ]
  %34 = phi i64 [ %.promoted66, %.lr.ph65 ], [ %41, %33 ]
  %35 = getelementptr inbounds nuw %struct.H5FL_arr_node_t, ptr %32, i64 %indvars.iv
  %36 = getelementptr inbounds nuw i8, ptr %35, i64 8
  %37 = load i32, ptr %36, align 8, !tbaa !114
  %38 = zext i32 %37 to i64
  %39 = load i64, ptr %35, align 8, !tbaa !108
  %40 = mul i64 %39, %38
  %41 = add i64 %34, %40
  store i64 %41, ptr %1, align 8, !tbaa !86
  %indvars.iv.next = add nuw nsw i64 %indvars.iv, 1
  %exitcond.not = icmp eq i64 %indvars.iv.next, %wide.trip.count
  br i1 %exitcond.not, label %.loopexit58, label %33, !llvm.loop !125

.loopexit58:                                      ; preds = %33, %.preheader, %.lr.ph70
  %.promoted6687 = phi i64 [ %.promoted66, %.preheader ], [ %.promoted66, %.lr.ph70 ], [ %41, %33 ]
  %42 = getelementptr inbounds nuw i8, ptr %.04369, i64 8
  %.043 = load ptr, ptr %42, align 8, !tbaa !116
  %.not50 = icmp eq ptr %.043, null
  br i1 %.not50, label %.loopexit59, label %.lr.ph70, !llvm.loop !126

.loopexit59:                                      ; preds = %.loopexit58, %25, %.loopexit60
  %.not51 = icmp eq ptr %2, null
  br i1 %.not51, label %.loopexit57, label %43

43:                                               ; preds = %.loopexit59
  %44 = load ptr, ptr @H5FL_blk_gc_head.1, align 8, !tbaa !51
  store i64 0, ptr %2, align 8, !tbaa !86
  %.not5276 = icmp eq ptr %44, null
  br i1 %.not5276, label %.loopexit57, label %.lr.ph79

.lr.ph79:                                         ; preds = %43, %._crit_edge
  %.promoted75 = phi i64 [ %.promoted7589, %._crit_edge ], [ 0, %43 ]
  %.04177 = phi ptr [ %56, %._crit_edge ], [ %44, %43 ]
  %45 = load ptr, ptr %.04177, align 8, !tbaa !57
  %46 = getelementptr inbounds nuw i8, ptr %45, i64 32
  %.04071 = load ptr, ptr %46, align 8, !tbaa !88
  %.not5572 = icmp eq ptr %.04071, null
  br i1 %.not5572, label %._crit_edge, label %.lr.ph74

.lr.ph74:                                         ; preds = %.lr.ph79, %.lr.ph74
  %47 = phi i64 [ %53, %.lr.ph74 ], [ %.promoted75, %.lr.ph79 ]
  %.04073 = phi ptr [ %.040, %.lr.ph74 ], [ %.04071, %.lr.ph79 ]
  %48 = getelementptr inbounds nuw i8, ptr %.04073, i64 8
  %49 = load i32, ptr %48, align 8, !tbaa !101
  %50 = zext i32 %49 to i64
  %51 = load i64, ptr %.04073, align 8, !tbaa !89
  %52 = mul i64 %51, %50
  %53 = add i64 %47, %52
  store i64 %53, ptr %2, align 8, !tbaa !86
  %54 = getelementptr inbounds nuw i8, ptr %.04073, i64 24
  %.040 = load ptr, ptr %54, align 8, !tbaa !88
  %.not55 = icmp eq ptr %.040, null
  br i1 %.not55, label %._crit_edge, label %.lr.ph74, !llvm.loop !127

._crit_edge:                                      ; preds = %.lr.ph74, %.lr.ph79
  %.promoted7589 = phi i64 [ %.promoted75, %.lr.ph79 ], [ %53, %.lr.ph74 ]
  %55 = getelementptr inbounds nuw i8, ptr %.04177, i64 8
  %56 = load ptr, ptr %55, align 8, !tbaa !54
  %.not52 = icmp eq ptr %56, null
  br i1 %.not52, label %.loopexit57, label %.lr.ph79, !llvm.loop !128

.loopexit57:                                      ; preds = %._crit_edge, %43, %.loopexit59
  %.not53 = icmp eq ptr %3, null
  br i1 %.not53, label %.loopexit, label %57

57:                                               ; preds = %.loopexit57
  %58 = load ptr, ptr @H5FL_fac_gc_head.1, align 8, !tbaa !36
  store i64 0, ptr %3, align 8, !tbaa !86
  %.not5480 = icmp eq ptr %58, null
  br i1 %.not5480, label %.loopexit, label %.lr.ph83

.lr.ph83:                                         ; preds = %57, %.lr.ph83
  %59 = phi i64 [ %67, %.lr.ph83 ], [ 0, %57 ]
  %.03981 = phi ptr [ %69, %.lr.ph83 ], [ %58, %57 ]
  %60 = load ptr, ptr %.03981, align 8, !tbaa !32
  %61 = getelementptr inbounds nuw i8, ptr %60, i64 4
  %62 = load i32, ptr %61, align 4, !tbaa !81
  %63 = zext i32 %62 to i64
  %64 = getelementptr inbounds nuw i8, ptr %60, i64 16
  %65 = load i64, ptr %64, align 8, !tbaa !82
  %66 = mul i64 %65, %63
  %67 = add i64 %59, %66
  store i64 %67, ptr %3, align 8, !tbaa !86
  %68 = getelementptr inbounds nuw i8, ptr %.03981, i64 8
  %69 = load ptr, ptr %68, align 8, !tbaa !28
  %.not54 = icmp eq ptr %69, null
  br i1 %.not54, label %.loopexit, label %.lr.ph83, !llvm.loop !129

.loopexit:                                        ; preds = %.lr.ph83, %57, %.loopexit57, %10
  ret i32 0
}